; ModuleID = 'source-C-CXX/56/1471.c'
source_filename = "source-C-CXX/56/1471.c"
target datalayout = "e-m:e-p270:32:32-p271:32:32-p272:64:64-i64:64-f80:128-n8:16:32:64-S128"
target triple = "x86_64-pc-linux-gnu"

@.str = private unnamed_addr constant [3 x i8] c"%d\00", align 1
@.str.1 = private unnamed_addr constant [3 x i8] c"%s\00", align 1

; Function Attrs: nofree nounwind sspstrong uwtable
define dso_local i32 @main(i32 %0, i8** nocapture readnone %1) local_unnamed_addr #0 {
  %3 = alloca i32, align 4
  %4 = alloca [50 x i8], align 16
  %5 = bitcast i32* %3 to i8*
  call void @llvm.lifetime.start.p0i8(i64 4, i8* nonnull %5) #5
  %6 = getelementptr inbounds [50 x i8], [50 x i8]* %4, i64 0, i64 0
  call void @llvm.lifetime.start.p0i8(i64 50, i8* nonnull %6) #5
  %7 = call i32 (i8*, ...) @__isoc99_scanf(i8* getelementptr inbounds ([3 x i8], [3 x i8]* @.str, i64 0, i64 0), i32* nonnull %3)
  %8 = load i32, i32* %3, align 4, !tbaa !5
  %9 = icmp sgt i32 %8, 0
  br i1 %9, label %10, label %53

10:                                               ; preds = %2, %48
  %11 = phi i32 [ %50, %48 ], [ 0, %2 ]
  %12 = call i32 (i8*, ...) @__isoc99_scanf(i8* getelementptr inbounds ([3 x i8], [3 x i8]* @.str.1, i64 0, i64 0), [50 x i8]* nonnull %4)
  %13 = call i64 @strlen(i8* noundef nonnull %6) #6
  %14 = shl i64 %13, 32
  %15 = add i64 %14, -4294967296
  %16 = ashr exact i64 %15, 32
  %17 = getelementptr inbounds [50 x i8], [50 x i8]* %4, i64 0, i64 %16
  %18 = load i8, i8* %17, align 1, !tbaa !9
  switch i8 %18, label %48 [
    i8 114, label %19
    i8 121, label %25
    i8 103, label %34
  ]

19:                                               ; preds = %10
  %20 = add i64 %14, -8589934592
  %21 = ashr exact i64 %20, 32
  %22 = getelementptr inbounds [50 x i8], [50 x i8]* %4, i64 0, i64 %21
  %23 = load i8, i8* %22, align 1, !tbaa !9
  %24 = icmp eq i8 %23, 101
  br i1 %24, label %31, label %48

25:                                               ; preds = %10
  %26 = add i64 %14, -8589934592
  %27 = ashr exact i64 %26, 32
  %28 = getelementptr inbounds [50 x i8], [50 x i8]* %4, i64 0, i64 %27
  %29 = load i8, i8* %28, align 1, !tbaa !9
  %30 = icmp eq i8 %29, 108
  br i1 %30, label %31, label %48

31:                                               ; preds = %25, %19
  %32 = phi i64 [ %27, %25 ], [ %21, %19 ]
  %33 = getelementptr inbounds [50 x i8], [50 x i8]* %4, i64 0, i64 %32
  br label %46

34:                                               ; preds = %10
  %35 = add i64 %14, -8589934592
  %36 = ashr exact i64 %35, 32
  %37 = getelementptr inbounds [50 x i8], [50 x i8]* %4, i64 0, i64 %36
  %38 = load i8, i8* %37, align 1, !tbaa !9
  %39 = icmp eq i8 %38, 110
  br i1 %39, label %40, label %48

40:                                               ; preds = %34
  %41 = add i64 %14, -12884901888
  %42 = ashr exact i64 %41, 32
  %43 = getelementptr inbounds [50 x i8], [50 x i8]* %4, i64 0, i64 %42
  %44 = load i8, i8* %43, align 1, !tbaa !9
  %45 = icmp eq i8 %44, 105
  br i1 %45, label %46, label %48

46:                                               ; preds = %40, %31
  %47 = phi i8* [ %33, %31 ], [ %43, %40 ]
  store i8 0, i8* %47, align 1, !tbaa !9
  br label %48

48:                                               ; preds = %46, %10, %19, %25, %40, %34
  %49 = call i32 @puts(i8* nonnull %6)
  %50 = add nuw nsw i32 %11, 1
  %51 = load i32, i32* %3, align 4, !tbaa !5
  %52 = icmp slt i32 %50, %51
  br i1 %52, label %10, label %53, !llvm.loop !10

53:                                               ; preds = %48, %2
  call void @llvm.lifetime.end.p0i8(i64 50, i8* nonnull %6) #5
  call void @llvm.lifetime.end.p0i8(i64 4, i8* nonnull %5) #5
  ret i32 0
}

; Function Attrs: argmemonly mustprogress nofree nosync nounwind willreturn
declare void @llvm.lifetime.start.p0i8(i64 immarg, i8* nocapture) #1

; Function Attrs: nofree nounwind
declare noundef i32 @__isoc99_scanf(i8* nocapture noundef readonly, ...) local_unnamed_addr #2

; Function Attrs: argmemonly mustprogress nofree nounwind readonly willreturn
declare i64 @strlen(i8* nocapture) local_unnamed_addr #3

; Function Attrs: argmemonly mustprogress nofree nosync nounwind willreturn
declare void @llvm.lifetime.end.p0i8(i64 immarg, i8* nocapture) #1

; Function Attrs: nofree nounwind
declare noundef i32 @puts(i8* nocapture noundef readonly) local_unnamed_addr #4


!llvm.module.flags = !{!0, !1, !2, !3}
!llvm.ident = !{!4}

!0 = !{i32 1, !"wchar_size", i32 4}
!1 = !{i32 7, !"PIC Level", i32 2}
!2 = !{i32 7, !"PIE Level", i32 2}
!3 = !{i32 7, !"uwtable", i32 1}
!4 = !{!"clang version 13.0.0"}
!5 = !{!6, !6, i64 0}
!6 = !{!"int", !7, i64 0}
!7 = !{!"omnipotent char", !8, i64 0}
!8 = !{!"Simple C/C++ TBAA"}
!9 = !{!7, !7, i64 0}
!10 = distinct !{!10, !11}
!11 = !{!"llvm.loop.mustprogress"}
